target datalayout = "e-m:e-p270:32:32-p271:32:32-p272:64:64-i64:64-i128:128-f80:128-n8:16:32:64-S128"
target triple = "x86_64-pc-linux-gnu"

; Function Attrs: mustprogress uwtable
define noundef i32 @_ZN6icu_7717StringTrieBuilder18writeBranchSubNodeEiiii(ptr noundef nonnull align 8 dereferenceable(16) %0, i32 noundef %1, i32 noundef %2, i32 noundef %3, i32 noundef %4) #2 align 2 {
  %6 = alloca ptr, align 8
  %7 = alloca i32, align 4
  %8 = alloca i32, align 4
  %9 = alloca i32, align 4
  %10 = alloca i32, align 4
  %11 = alloca [14 x i16], align 16
  %12 = alloca [14 x i32], align 16
  %13 = alloca i32, align 4
  %14 = alloca i32, align 4
  %15 = alloca [5 x i32], align 16
  %16 = alloca [4 x i8], align 1
  %17 = alloca i32, align 4
  %18 = alloca i32, align 4
  %19 = alloca i16, align 2
  %20 = alloca [4 x i32], align 16
  %21 = alloca i32, align 4
  %22 = alloca i32, align 4
  store ptr %0, ptr %6, align 8, !tbaa !3
  store i32 %1, ptr %7, align 4, !tbaa !16
  store i32 %2, ptr %8, align 4, !tbaa !16
  store i32 %3, ptr %9, align 4, !tbaa !16
  store i32 %4, ptr %10, align 4, !tbaa !16
  %23 = load ptr, ptr %6, align 8
  call void @llvm.lifetime.start.p0(i64 28, ptr %11) #9
  call void @llvm.lifetime.start.p0(i64 56, ptr %12) #9
  call void @llvm.lifetime.start.p0(i64 4, ptr %13) #9
  store i32 0, ptr %13, align 4, !tbaa !16
  br label %24

24:                                               ; preds = %31, %5
  %25 = load i32, ptr %10, align 4, !tbaa !16
  %26 = load ptr, ptr %23, align 8, !tbaa !8
  %27 = getelementptr inbounds ptr, ptr %26, i64 11
  %28 = load ptr, ptr %27, align 8
  %29 = call noundef i32 %28(ptr noundef nonnull align 8 dereferenceable(16) %23)
  %30 = icmp sgt i32 %25, %29
  br i1 %30, label %31, label %65

31:                                               ; preds = %24
  call void @llvm.lifetime.start.p0(i64 4, ptr %14) #9
  %32 = load i32, ptr %7, align 4, !tbaa !16
  %33 = load i32, ptr %9, align 4, !tbaa !16
  %34 = load i32, ptr %10, align 4, !tbaa !16
  %35 = sdiv i32 %34, 2
  %36 = load ptr, ptr %23, align 8, !tbaa !8
  %37 = getelementptr inbounds ptr, ptr %36, i64 8
  %38 = load ptr, ptr %37, align 8
  %39 = call noundef i32 %38(ptr noundef nonnull align 8 dereferenceable(16) %23, i32 noundef %32, i32 noundef %33, i32 noundef %35)
  store i32 %39, ptr %14, align 4, !tbaa !16
  %40 = load i32, ptr %14, align 4, !tbaa !16
  %41 = load i32, ptr %9, align 4, !tbaa !16
  %42 = load ptr, ptr %23, align 8, !tbaa !8
  %43 = getelementptr inbounds ptr, ptr %42, i64 4
  %44 = load ptr, ptr %43, align 8
  %45 = call noundef zeroext i16 %44(ptr noundef nonnull align 8 dereferenceable(16) %23, i32 noundef %40, i32 noundef %41)
  %46 = load i32, ptr %13, align 4, !tbaa !16
  %47 = sext i32 %46 to i64
  %48 = getelementptr inbounds [14 x i16], ptr %11, i64 0, i64 %47
  store i16 %45, ptr %48, align 2, !tbaa !29
  %49 = load i32, ptr %7, align 4, !tbaa !16
  %50 = load i32, ptr %14, align 4, !tbaa !16
  %51 = load i32, ptr %9, align 4, !tbaa !16
  %52 = load i32, ptr %10, align 4, !tbaa !16
  %53 = sdiv i32 %52, 2
  %54 = call noundef i32 @_ZN6icu_7717StringTrieBuilder18writeBranchSubNodeEiiii(ptr noundef nonnull align 8 dereferenceable(16) %23, i32 noundef %49, i32 noundef %50, i32 noundef %51, i32 noundef %53)
  %55 = load i32, ptr %13, align 4, !tbaa !16
  %56 = sext i32 %55 to i64
  %57 = getelementptr inbounds [14 x i32], ptr %12, i64 0, i64 %56
  store i32 %54, ptr %57, align 4, !tbaa !16
  %58 = load i32, ptr %13, align 4, !tbaa !16
  %59 = add nsw i32 %58, 1
  store i32 %59, ptr %13, align 4, !tbaa !16
  %60 = load i32, ptr %14, align 4, !tbaa !16
  store i32 %60, ptr %7, align 4, !tbaa !16
  %61 = load i32, ptr %10, align 4, !tbaa !16
  %62 = load i32, ptr %10, align 4, !tbaa !16
  %63 = sdiv i32 %62, 2
  %64 = sub nsw i32 %61, %63
  store i32 %64, ptr %10, align 4, !tbaa !16
  call void @llvm.lifetime.end.p0(i64 4, ptr %14) #9
  br label %24, !llvm.loop !31

65:                                               ; preds = %24
  call void @llvm.lifetime.start.p0(i64 20, ptr %15) #9
  call void @llvm.lifetime.start.p0(i64 4, ptr %16) #9
  call void @llvm.lifetime.start.p0(i64 4, ptr %17) #9
  store i32 0, ptr %17, align 4, !tbaa !16
  br label %66

66:                                               ; preds = %105, %65
  call void @llvm.lifetime.start.p0(i64 4, ptr %18) #9
  %67 = load i32, ptr %7, align 4, !tbaa !16
  %68 = load i32, ptr %17, align 4, !tbaa !16
  %69 = sext i32 %68 to i64
  %70 = getelementptr inbounds [5 x i32], ptr %15, i64 0, i64 %69
  store i32 %67, ptr %70, align 4, !tbaa !16
  store i32 %67, ptr %18, align 4, !tbaa !16
  call void @llvm.lifetime.start.p0(i64 2, ptr %19) #9
  %71 = load i32, ptr %18, align 4, !tbaa !16
  %72 = add nsw i32 %71, 1
  store i32 %72, ptr %18, align 4, !tbaa !16
  %73 = load i32, ptr %9, align 4, !tbaa !16
  %74 = load ptr, ptr %23, align 8, !tbaa !8
  %75 = getelementptr inbounds ptr, ptr %74, i64 4
  %76 = load ptr, ptr %75, align 8
  %77 = call noundef zeroext i16 %76(ptr noundef nonnull align 8 dereferenceable(16) %23, i32 noundef %71, i32 noundef %73)
  store i16 %77, ptr %19, align 2, !tbaa !29
  %78 = load i32, ptr %18, align 4, !tbaa !16
  %79 = load i32, ptr %9, align 4, !tbaa !16
  %80 = load i16, ptr %19, align 2, !tbaa !29
  %81 = load ptr, ptr %23, align 8, !tbaa !8
  %82 = getelementptr inbounds ptr, ptr %81, i64 9
  %83 = load ptr, ptr %82, align 8
  %84 = call noundef i32 %83(ptr noundef nonnull align 8 dereferenceable(16) %23, i32 noundef %78, i32 noundef %79, i16 noundef zeroext %80)
  store i32 %84, ptr %18, align 4, !tbaa !16
  %85 = load i32, ptr %7, align 4, !tbaa !16
  %86 = load i32, ptr %18, align 4, !tbaa !16
  %87 = sub nsw i32 %86, 1
  %88 = icmp eq i32 %85, %87
  br i1 %88, label %89, label %98

89:                                               ; preds = %66
  %90 = load i32, ptr %9, align 4, !tbaa !16
  %91 = add nsw i32 %90, 1
  %92 = load i32, ptr %7, align 4, !tbaa !16
  %93 = load ptr, ptr %23, align 8, !tbaa !8
  %94 = getelementptr inbounds ptr, ptr %93, i64 3
  %95 = load ptr, ptr %94, align 8
  %96 = call noundef i32 %95(ptr noundef nonnull align 8 dereferenceable(16) %23, i32 noundef %92)
  %97 = icmp eq i32 %91, %96
  br label %98

98:                                               ; preds = %89, %66
  %99 = phi i1 [ false, %66 ], [ %97, %89 ]
  %100 = zext i1 %99 to i8
  %101 = load i32, ptr %17, align 4, !tbaa !16
  %102 = sext i32 %101 to i64
  %103 = getelementptr inbounds [4 x i8], ptr %16, i64 0, i64 %102
  store i8 %100, ptr %103, align 1, !tbaa !21
  %104 = load i32, ptr %18, align 4, !tbaa !16
  store i32 %104, ptr %7, align 4, !tbaa !16
  call void @llvm.lifetime.end.p0(i64 2, ptr %19) #9
  call void @llvm.lifetime.end.p0(i64 4, ptr %18) #9
  br label %105

105:                                              ; preds = %98
  %106 = load i32, ptr %17, align 4, !tbaa !16
  %107 = add nsw i32 %106, 1
  store i32 %107, ptr %17, align 4, !tbaa !16
  %108 = load i32, ptr %10, align 4, !tbaa !16
  %109 = sub nsw i32 %108, 1
  %110 = icmp slt i32 %107, %109
  br i1 %110, label %66, label %111, !llvm.loop !32

111:                                              ; preds = %105
  %112 = load i32, ptr %7, align 4, !tbaa !16
  %113 = load i32, ptr %17, align 4, !tbaa !16
  %114 = sext i32 %113 to i64
  %115 = getelementptr inbounds [5 x i32], ptr %15, i64 0, i64 %114
  store i32 %112, ptr %115, align 4, !tbaa !16
  call void @llvm.lifetime.start.p0(i64 16, ptr %20) #9
  br label %116

116:                                              ; preds = %141, %111
  %117 = load i32, ptr %17, align 4, !tbaa !16
  %118 = add nsw i32 %117, -1
  store i32 %118, ptr %17, align 4, !tbaa !16
  %119 = load i32, ptr %17, align 4, !tbaa !16
  %120 = sext i32 %119 to i64
  %121 = getelementptr inbounds [4 x i8], ptr %16, i64 0, i64 %120
  %122 = load i8, ptr %121, align 1, !tbaa !21
  %123 = icmp ne i8 %122, 0
  br i1 %123, label %140, label %124

124:                                              ; preds = %116
  %125 = load i32, ptr %17, align 4, !tbaa !16
  %126 = sext i32 %125 to i64
  %127 = getelementptr inbounds [5 x i32], ptr %15, i64 0, i64 %126
  %128 = load i32, ptr %127, align 4, !tbaa !16
  %129 = load i32, ptr %17, align 4, !tbaa !16
  %130 = add nsw i32 %129, 1
  %131 = sext i32 %130 to i64
  %132 = getelementptr inbounds [5 x i32], ptr %15, i64 0, i64 %131
  %133 = load i32, ptr %132, align 4, !tbaa !16
  %134 = load i32, ptr %9, align 4, !tbaa !16
  %135 = add nsw i32 %134, 1
  %136 = call noundef i32 @_ZN6icu_7717StringTrieBuilder9writeNodeEiii(ptr noundef nonnull align 8 dereferenceable(16) %23, i32 noundef %128, i32 noundef %133, i32 noundef %135)
  %137 = load i32, ptr %17, align 4, !tbaa !16
  %138 = sext i32 %137 to i64
  %139 = getelementptr inbounds [4 x i32], ptr %20, i64 0, i64 %138
  store i32 %136, ptr %139, align 4, !tbaa !16
  br label %140

140:                                              ; preds = %124, %116
  br label %141

141:                                              ; preds = %140
  %142 = load i32, ptr %17, align 4, !tbaa !16
  %143 = icmp sgt i32 %142, 0
  br i1 %143, label %116, label %144, !llvm.loop !33

144:                                              ; preds = %141
  %145 = load i32, ptr %10, align 4, !tbaa !16
  %146 = sub nsw i32 %145, 1
  store i32 %146, ptr %17, align 4, !tbaa !16
  %147 = load i32, ptr %7, align 4, !tbaa !16
  %148 = load i32, ptr %8, align 4, !tbaa !16
  %149 = load i32, ptr %9, align 4, !tbaa !16
  %150 = add nsw i32 %149, 1
  %151 = call noundef i32 @_ZN6icu_7717StringTrieBuilder9writeNodeEiii(ptr noundef nonnull align 8 dereferenceable(16) %23, i32 noundef %147, i32 noundef %148, i32 noundef %150)
  call void @llvm.lifetime.start.p0(i64 4, ptr %21) #9
  %152 = load i32, ptr %7, align 4, !tbaa !16
  %153 = load i32, ptr %9, align 4, !tbaa !16
  %154 = load ptr, ptr %23, align 8, !tbaa !8
  %155 = getelementptr inbounds ptr, ptr %154, i64 4
  %156 = load ptr, ptr %155, align 8
  %157 = call noundef zeroext i16 %156(ptr noundef nonnull align 8 dereferenceable(16) %23, i32 noundef %152, i32 noundef %153)
  %158 = zext i16 %157 to i32
  %159 = load ptr, ptr %23, align 8, !tbaa !8
  %160 = getelementptr inbounds ptr, ptr %159, i64 15
  %161 = load ptr, ptr %160, align 8
  %162 = call noundef i32 %161(ptr noundef nonnull align 8 dereferenceable(16) %23, i32 noundef %158)
  store i32 %162, ptr %21, align 4, !tbaa !16
  br label %163

163:                                              ; preds = %190, %144
  %164 = load i32, ptr %17, align 4, !tbaa !16
  %165 = add nsw i32 %164, -1
  store i32 %165, ptr %17, align 4, !tbaa !16
  %166 = icmp sge i32 %165, 0
  br i1 %166, label %167, label %211

167:                                              ; preds = %163
  %168 = load i32, ptr %17, align 4, !tbaa !16
  %169 = sext i32 %168 to i64
  %170 = getelementptr inbounds [5 x i32], ptr %15, i64 0, i64 %169
  %171 = load i32, ptr %170, align 4, !tbaa !16
  store i32 %171, ptr %7, align 4, !tbaa !16
  call void @llvm.lifetime.start.p0(i64 4, ptr %22) #9
  %172 = load i32, ptr %17, align 4, !tbaa !16
  %173 = sext i32 %172 to i64
  %174 = getelementptr inbounds [4 x i8], ptr %16, i64 0, i64 %173
  %175 = load i8, ptr %174, align 1, !tbaa !21
  %176 = icmp ne i8 %175, 0
  br i1 %176, label %177, label %183

177:                                              ; preds = %167
  %178 = load i32, ptr %7, align 4, !tbaa !16
  %179 = load ptr, ptr %23, align 8, !tbaa !8
  %180 = getelementptr inbounds ptr, ptr %179, i64 5
  %181 = load ptr, ptr %180, align 8
  %182 = call noundef i32 %181(ptr noundef nonnull align 8 dereferenceable(16) %23, i32 noundef %178)
  store i32 %182, ptr %22, align 4, !tbaa !16
  br label %190

183:                                              ; preds = %167
  %184 = load i32, ptr %21, align 4, !tbaa !16
  %185 = load i32, ptr %17, align 4, !tbaa !16
  %186 = sext i32 %185 to i64
  %187 = getelementptr inbounds [4 x i32], ptr %20, i64 0, i64 %186
  %188 = load i32, ptr %187, align 4, !tbaa !16
  %189 = sub nsw i32 %184, %188
  store i32 %189, ptr %22, align 4, !tbaa !16
  br label %190

190:                                              ; preds = %183, %177
  %191 = load i32, ptr %22, align 4, !tbaa !16
  %192 = load i32, ptr %17, align 4, !tbaa !16
  %193 = sext i32 %192 to i64
  %194 = getelementptr inbounds [4 x i8], ptr %16, i64 0, i64 %193
  %195 = load i8, ptr %194, align 1, !tbaa !21
  %196 = load ptr, ptr %23, align 8, !tbaa !8
  %197 = getelementptr inbounds ptr, ptr %196, i64 17
  %198 = load ptr, ptr %197, align 8
  %199 = call noundef i32 %198(ptr noundef nonnull align 8 dereferenceable(16) %23, i32 noundef %191, i8 noundef signext %195)
  %200 = load i32, ptr %7, align 4, !tbaa !16
  %201 = load i32, ptr %9, align 4, !tbaa !16
  %202 = load ptr, ptr %23, align 8, !tbaa !8
  %203 = getelementptr inbounds ptr, ptr %202, i64 4
  %204 = load ptr, ptr %203, align 8
  %205 = call noundef zeroext i16 %204(ptr noundef nonnull align 8 dereferenceable(16) %23, i32 noundef %200, i32 noundef %201)
  %206 = zext i16 %205 to i32
  %207 = load ptr, ptr %23, align 8, !tbaa !8
  %208 = getelementptr inbounds ptr, ptr %207, i64 15
  %209 = load ptr, ptr %208, align 8
  %210 = call noundef i32 %209(ptr noundef nonnull align 8 dereferenceable(16) %23, i32 noundef %206)
  store i32 %210, ptr %21, align 4, !tbaa !16
  call void @llvm.lifetime.end.p0(i64 4, ptr %22) #9
  br label %163, !llvm.loop !34

211:                                              ; preds = %163
  br label %212

212:                                              ; preds = %215, %211
  %213 = load i32, ptr %13, align 4, !tbaa !16
  %214 = icmp sgt i32 %213, 0
  br i1 %214, label %215, label %235

215:                                              ; preds = %212
  %216 = load i32, ptr %13, align 4, !tbaa !16
  %217 = add nsw i32 %216, -1
  store i32 %217, ptr %13, align 4, !tbaa !16
  %218 = load i32, ptr %13, align 4, !tbaa !16
  %219 = sext i32 %218 to i64
  %220 = getelementptr inbounds [14 x i32], ptr %12, i64 0, i64 %219
  %221 = load i32, ptr %220, align 4, !tbaa !16
  %222 = load ptr, ptr %23, align 8, !tbaa !8
  %223 = getelementptr inbounds ptr, ptr %222, i64 19
  %224 = load ptr, ptr %223, align 8
  %225 = call noundef i32 %224(ptr noundef nonnull align 8 dereferenceable(16) %23, i32 noundef %221)
  %226 = load i32, ptr %13, align 4, !tbaa !16
  %227 = sext i32 %226 to i64
  %228 = getelementptr inbounds [14 x i16], ptr %11, i64 0, i64 %227
  %229 = load i16, ptr %228, align 2, !tbaa !29
  %230 = zext i16 %229 to i32
  %231 = load ptr, ptr %23, align 8, !tbaa !8
  %232 = getelementptr inbounds ptr, ptr %231, i64 15
  %233 = load ptr, ptr %232, align 8
  %234 = call noundef i32 %233(ptr noundef nonnull align 8 dereferenceable(16) %23, i32 noundef %230)
  store i32 %234, ptr %21, align 4, !tbaa !16
  br label %212, !llvm.loop !35

235:                                              ; preds = %212
  %236 = load i32, ptr %21, align 4, !tbaa !16
  call void @llvm.lifetime.end.p0(i64 4, ptr %21) #9
  call void @llvm.lifetime.end.p0(i64 16, ptr %20) #9
  call void @llvm.lifetime.end.p0(i64 4, ptr %17) #9
  call void @llvm.lifetime.end.p0(i64 4, ptr %16) #9
  call void @llvm.lifetime.end.p0(i64 20, ptr %15) #9
  call void @llvm.lifetime.end.p0(i64 4, ptr %13) #9
  call void @llvm.lifetime.end.p0(i64 56, ptr %12) #9
  call void @llvm.lifetime.end.p0(i64 28, ptr %11) #9
  ret i32 %236
}