; Function Attrs: mustprogress uwtable
define noundef i32 @_ZN6icu_7717StringTrieBuilder18writeBranchSubNodeEiiii(ptr noundef nonnull align 8 dereferenceable(16) %0, i32 noundef %1, i32 noundef %2, i32 noundef %3, i32 noundef %4) local_unnamed_addr #2 align 2 {
  %6 = alloca [14 x i16], align 16
  %7 = alloca [14 x i32], align 16
  %8 = alloca [5 x i32], align 16
  %9 = alloca [4 x i8], align 1
  %10 = alloca [4 x i32], align 16
  call void @llvm.lifetime.start.p0(i64 28, ptr nonnull %6) #16
  call void @llvm.lifetime.start.p0(i64 56, ptr nonnull %7) #16
  %11 = load ptr, ptr %0, align 8, !tbaa !3
  %12 = getelementptr inbounds nuw i8, ptr %11, i64 88
  %13 = load ptr, ptr %12, align 8
  %14 = tail call noundef i32 %13(ptr noundef nonnull align 8 dereferenceable(16) %0)
  %15 = icmp sgt i32 %4, %14
  br i1 %15, label %.lr.ph, label %._crit_edge

.lr.ph:                                           ; preds = %5, %.lr.ph
  %indvars.iv = phi i64 [ %indvars.iv.next, %.lr.ph ], [ 0, %5 ]
  %.06279 = phi i32 [ %20, %.lr.ph ], [ %1, %5 ]
  %.06678 = phi i32 [ %28, %.lr.ph ], [ %4, %5 ]
  %16 = sdiv i32 %.06678, 2
  %17 = load ptr, ptr %0, align 8, !tbaa !3
  %18 = getelementptr inbounds nuw i8, ptr %17, i64 64
  %19 = load ptr, ptr %18, align 8
  %20 = tail call noundef i32 %19(ptr noundef nonnull align 8 dereferenceable(16) %0, i32 noundef %.06279, i32 noundef %3, i32 noundef %16)
  %21 = load ptr, ptr %0, align 8, !tbaa !3
  %22 = getelementptr inbounds nuw i8, ptr %21, i64 32
  %23 = load ptr, ptr %22, align 8
  %24 = tail call noundef zeroext i16 %23(ptr noundef nonnull align 8 dereferenceable(16) %0, i32 noundef %20, i32 noundef %3)
  %25 = getelementptr inbounds nuw [14 x i16], ptr %6, i64 0, i64 %indvars.iv
  store i16 %24, ptr %25, align 2, !tbaa !31
  %26 = tail call noundef i32 @_ZN6icu_7717StringTrieBuilder18writeBranchSubNodeEiiii(ptr noundef nonnull align 8 dereferenceable(16) %0, i32 noundef %.06279, i32 noundef %20, i32 noundef %3, i32 noundef %16)
  %27 = getelementptr inbounds nuw [14 x i32], ptr %7, i64 0, i64 %indvars.iv
  store i32 %26, ptr %27, align 4, !tbaa !33
  %indvars.iv.next = add nuw nsw i64 %indvars.iv, 1
  %28 = sub nsw i32 %.06678, %16
  %29 = load ptr, ptr %0, align 8, !tbaa !3
  %30 = getelementptr inbounds nuw i8, ptr %29, i64 88
  %31 = load ptr, ptr %30, align 8
  %32 = tail call noundef i32 %31(ptr noundef nonnull align 8 dereferenceable(16) %0)
  %33 = icmp sgt i32 %28, %32
  br i1 %33, label %.lr.ph, label %._crit_edge.loopexit, !llvm.loop !34

._crit_edge.loopexit:                             ; preds = %.lr.ph
  %34 = trunc nuw i64 %indvars.iv.next to i32
  br label %._crit_edge

._crit_edge:                                      ; preds = %._crit_edge.loopexit, %5
  %.067.lcssa = phi i32 [ 0, %5 ], [ %34, %._crit_edge.loopexit ]
  %.066.lcssa = phi i32 [ %4, %5 ], [ %28, %._crit_edge.loopexit ]
  %.062.lcssa = phi i32 [ %1, %5 ], [ %20, %._crit_edge.loopexit ]
  call void @llvm.lifetime.start.p0(i64 20, ptr nonnull %8) #16
  call void @llvm.lifetime.start.p0(i64 4, ptr nonnull %9) #16
  %35 = add nsw i32 %3, 1
  %36 = add i32 %.066.lcssa, -1
  %smax = tail call i32 @llvm.smax.i32(i32 %36, i32 1)
  %wide.trip.count = zext nneg i32 %smax to i64
  br label %37

37:                                               ; preds = %57, %._crit_edge
  %indvars.iv100 = phi i64 [ %indvars.iv.next101, %57 ], [ 1, %._crit_edge ]
  %indvars.iv97 = phi i64 [ %indvars.iv.next98, %57 ], [ 0, %._crit_edge ]
  %.163 = phi i32 [ %47, %57 ], [ %.062.lcssa, %._crit_edge ]
  %38 = getelementptr inbounds nuw [5 x i32], ptr %8, i64 0, i64 %indvars.iv97
  store i32 %.163, ptr %38, align 4, !tbaa !33
  %39 = add nsw i32 %.163, 1
  %40 = load ptr, ptr %0, align 8, !tbaa !3
  %41 = getelementptr inbounds nuw i8, ptr %40, i64 32
  %42 = load ptr, ptr %41, align 8
  %43 = tail call noundef zeroext i16 %42(ptr noundef nonnull align 8 dereferenceable(16) %0, i32 noundef %.163, i32 noundef %3)
  %44 = load ptr, ptr %0, align 8, !tbaa !3
  %45 = getelementptr inbounds nuw i8, ptr %44, i64 72
  %46 = load ptr, ptr %45, align 8
  %47 = tail call noundef i32 %46(ptr noundef nonnull align 8 dereferenceable(16) %0, i32 noundef %39, i32 noundef %3, i16 noundef zeroext %43)
  %48 = add nsw i32 %47, -1
  %49 = icmp eq i32 %.163, %48
  br i1 %49, label %50, label %57

50:                                               ; preds = %37
  %51 = load ptr, ptr %0, align 8, !tbaa !3
  %52 = getelementptr inbounds nuw i8, ptr %51, i64 24
  %53 = load ptr, ptr %52, align 8
  %54 = tail call noundef i32 %53(ptr noundef nonnull align 8 dereferenceable(16) %0, i32 noundef %.163)
  %55 = icmp eq i32 %35, %54
  %56 = zext i1 %55 to i8
  br label %57

57:                                               ; preds = %50, %37
  %58 = phi i8 [ 0, %37 ], [ %56, %50 ]
  %59 = getelementptr inbounds nuw [4 x i8], ptr %9, i64 0, i64 %indvars.iv97
  store i8 %58, ptr %59, align 1, !tbaa !19
  %indvars.iv.next98 = add nuw nsw i64 %indvars.iv97, 1
  %exitcond.not = icmp eq i64 %indvars.iv.next98, %wide.trip.count
  %indvars.iv.next101 = add nuw nsw i64 %indvars.iv100, 1
  br i1 %exitcond.not, label %60, label %37, !llvm.loop !35

60:                                               ; preds = %57
  %61 = getelementptr inbounds nuw [5 x i32], ptr %8, i64 0, i64 %wide.trip.count
  store i32 %47, ptr %61, align 4, !tbaa !33
  call void @llvm.lifetime.start.p0(i64 16, ptr nonnull %10) #16
  br label %62

62:                                               ; preds = %72, %60
  %indvars.iv102 = phi i64 [ %indvars.iv.next103, %72 ], [ %indvars.iv100, %60 ]
  %indvars.iv.next103 = add nsw i64 %indvars.iv102, -1
  %63 = getelementptr inbounds [4 x i8], ptr %9, i64 0, i64 %indvars.iv.next103
  %64 = load i8, ptr %63, align 1, !tbaa !19
  %.not = icmp eq i8 %64, 0
  br i1 %.not, label %65, label %72

65:                                               ; preds = %62
  %66 = getelementptr inbounds [5 x i32], ptr %8, i64 0, i64 %indvars.iv.next103
  %67 = load i32, ptr %66, align 4, !tbaa !33
  %68 = getelementptr inbounds [5 x i32], ptr %8, i64 0, i64 %indvars.iv102
  %69 = load i32, ptr %68, align 4, !tbaa !33
  %70 = tail call noundef i32 @_ZN6icu_7717StringTrieBuilder9writeNodeEiii(ptr noundef nonnull align 8 dereferenceable(16) %0, i32 noundef %67, i32 noundef %69, i32 noundef %35)
  %71 = getelementptr inbounds [4 x i32], ptr %10, i64 0, i64 %indvars.iv.next103
  store i32 %70, ptr %71, align 4, !tbaa !33
  br label %72

72:                                               ; preds = %62, %65
  %73 = icmp sgt i64 %indvars.iv102, 1
  br i1 %73, label %62, label %74, !llvm.loop !36

74:                                               ; preds = %72
  %75 = tail call noundef i32 @_ZN6icu_7717StringTrieBuilder9writeNodeEiii(ptr noundef nonnull align 8 dereferenceable(16) %0, i32 noundef %47, i32 noundef %2, i32 noundef %35)
  %76 = load ptr, ptr %0, align 8, !tbaa !3
  %77 = getelementptr inbounds nuw i8, ptr %76, i64 32
  %78 = load ptr, ptr %77, align 8
  %79 = tail call noundef zeroext i16 %78(ptr noundef nonnull align 8 dereferenceable(16) %0, i32 noundef %47, i32 noundef %3)
  %80 = zext i16 %79 to i32
  %81 = load ptr, ptr %0, align 8, !tbaa !3
  %82 = getelementptr inbounds nuw i8, ptr %81, i64 120
  %83 = load ptr, ptr %82, align 8
  %84 = tail call noundef i32 %83(ptr noundef nonnull align 8 dereferenceable(16) %0, i32 noundef %80)
  %85 = icmp sgt i32 %.066.lcssa, 1
  br i1 %85, label %.lr.ph84.preheader, label %.preheader

.lr.ph84.preheader:                               ; preds = %74
  %86 = add nsw i32 %.066.lcssa, -2
  %87 = zext nneg i32 %86 to i64
  br label %.lr.ph84

.preheader:                                       ; preds = %103, %74
  %.061.lcssa = phi i32 [ %84, %74 ], [ %116, %103 ]
  %88 = icmp sgt i32 %.067.lcssa, 0
  br i1 %88, label %.lr.ph87.preheader, label %._crit_edge88

.lr.ph87.preheader:                               ; preds = %.preheader
  %89 = zext nneg i32 %.067.lcssa to i64
  br label %.lr.ph87

.lr.ph84:                                         ; preds = %.lr.ph84.preheader, %103
  %indvars.iv105 = phi i64 [ %87, %.lr.ph84.preheader ], [ %indvars.iv.next106, %103 ]
  %.06182 = phi i32 [ %84, %.lr.ph84.preheader ], [ %116, %103 ]
  %90 = getelementptr inbounds nuw [5 x i32], ptr %8, i64 0, i64 %indvars.iv105
  %91 = load i32, ptr %90, align 4, !tbaa !33
  %92 = getelementptr inbounds nuw [4 x i8], ptr %9, i64 0, i64 %indvars.iv105
  %93 = load i8, ptr %92, align 1, !tbaa !19
  %.not74 = icmp eq i8 %93, 0
  br i1 %.not74, label %99, label %94

94:                                               ; preds = %.lr.ph84
  %95 = load ptr, ptr %0, align 8, !tbaa !3
  %96 = getelementptr inbounds nuw i8, ptr %95, i64 40
  %97 = load ptr, ptr %96, align 8
  %98 = tail call noundef i32 %97(ptr noundef nonnull align 8 dereferenceable(16) %0, i32 noundef %91)
  br label %103

99:                                               ; preds = %.lr.ph84
  %100 = getelementptr inbounds nuw [4 x i32], ptr %10, i64 0, i64 %indvars.iv105
  %101 = load i32, ptr %100, align 4, !tbaa !33
  %102 = sub nsw i32 %.06182, %101
  br label %103

103:                                              ; preds = %99, %94
  %.0 = phi i32 [ %98, %94 ], [ %102, %99 ]
  %104 = load ptr, ptr %0, align 8, !tbaa !3
  %105 = getelementptr inbounds nuw i8, ptr %104, i64 136
  %106 = load ptr, ptr %105, align 8
  %107 = tail call noundef i32 %106(ptr noundef nonnull align 8 dereferenceable(16) %0, i32 noundef %.0, i8 noundef signext %93)
  %108 = load ptr, ptr %0, align 8, !tbaa !3
  %109 = getelementptr inbounds nuw i8, ptr %108, i64 32
  %110 = load ptr, ptr %109, align 8
  %111 = tail call noundef zeroext i16 %110(ptr noundef nonnull align 8 dereferenceable(16) %0, i32 noundef %91, i32 noundef %3)
  %112 = zext i16 %111 to i32
  %113 = load ptr, ptr %0, align 8, !tbaa !3
  %114 = getelementptr inbounds nuw i8, ptr %113, i64 120
  %115 = load ptr, ptr %114, align 8
  %116 = tail call noundef i32 %115(ptr noundef nonnull align 8 dereferenceable(16) %0, i32 noundef %112)
  %indvars.iv.next106 = add nsw i64 %indvars.iv105, -1
  %117 = icmp sgt i64 %indvars.iv105, 0
  br i1 %117, label %.lr.ph84, label %.preheader, !llvm.loop !37

.lr.ph87:                                         ; preds = %.lr.ph87.preheader, %.lr.ph87
  %indvars.iv108 = phi i64 [ %89, %.lr.ph87.preheader ], [ %indvars.iv.next109, %.lr.ph87 ]
  %indvars.iv.next109 = add nsw i64 %indvars.iv108, -1
  %118 = getelementptr inbounds nuw [14 x i32], ptr %7, i64 0, i64 %indvars.iv.next109
  %119 = load i32, ptr %118, align 4, !tbaa !33
  %120 = load ptr, ptr %0, align 8, !tbaa !3
  %121 = getelementptr inbounds nuw i8, ptr %120, i64 152
  %122 = load ptr, ptr %121, align 8
  %123 = tail call noundef i32 %122(ptr noundef nonnull align 8 dereferenceable(16) %0, i32 noundef %119)
  %124 = getelementptr inbounds nuw [14 x i16], ptr %6, i64 0, i64 %indvars.iv.next109
  %125 = load i16, ptr %124, align 2, !tbaa !31
  %126 = zext i16 %125 to i32
  %127 = load ptr, ptr %0, align 8, !tbaa !3
  %128 = getelementptr inbounds nuw i8, ptr %127, i64 120
  %129 = load ptr, ptr %128, align 8
  %130 = tail call noundef i32 %129(ptr noundef nonnull align 8 dereferenceable(16) %0, i32 noundef %126)
  %131 = icmp samesign ugt i64 %indvars.iv108, 1
  br i1 %131, label %.lr.ph87, label %._crit_edge88, !llvm.loop !38

._crit_edge88:                                    ; preds = %.lr.ph87, %.preheader
  %.1.lcssa = phi i32 [ %.061.lcssa, %.preheader ], [ %130, %.lr.ph87 ]
  call void @llvm.lifetime.end.p0(i64 16, ptr nonnull %10) #16
  call void @llvm.lifetime.end.p0(i64 4, ptr nonnull %9) #16
  call void @llvm.lifetime.end.p0(i64 20, ptr nonnull %8) #16
  call void @llvm.lifetime.end.p0(i64 56, ptr nonnull %7) #16
  call void @llvm.lifetime.end.p0(i64 28, ptr nonnull %6) #16
  ret i32 %.1.lcssa
}